target datalayout = "e-m:e-p270:32:32-p271:32:32-p272:64:64-i64:64-i128:128-f80:128-n8:16:32:64-S128"
target triple = "x86_64-pc-linux-gnu"

%struct.JNINativeInterface_ = type { ptr, ptr, ptr, ptr, ptr, ptr, ptr, ptr, ptr, ptr, ptr, ptr, ptr, ptr, ptr, ptr, ptr, ptr, ptr, ptr, ptr, ptr, ptr, ptr, ptr, ptr, ptr, ptr, ptr, ptr, ptr, ptr, ptr, ptr, ptr, ptr, ptr, ptr, ptr, ptr, ptr, ptr, ptr, ptr, ptr, ptr, ptr, ptr, ptr, ptr, ptr, ptr, ptr, ptr, ptr, ptr, ptr, ptr, ptr, ptr, ptr, ptr, ptr, ptr, ptr, ptr, ptr, ptr, ptr, ptr, ptr, ptr, ptr, ptr, ptr, ptr, ptr, ptr, ptr, ptr, ptr, ptr, ptr, ptr, ptr, ptr, ptr, ptr, ptr, ptr, ptr, ptr, ptr, ptr, ptr, ptr, ptr, ptr, ptr, ptr, ptr, ptr, ptr, ptr, ptr, ptr, ptr, ptr, ptr, ptr, ptr, ptr, ptr, ptr, ptr, ptr, ptr, ptr, ptr, ptr, ptr, ptr, ptr, ptr, ptr, ptr, ptr, ptr, ptr, ptr, ptr, ptr, ptr, ptr, ptr, ptr, ptr, ptr, ptr, ptr, ptr, ptr, ptr, ptr, ptr, ptr, ptr, ptr, ptr, ptr, ptr, ptr, ptr, ptr, ptr, ptr, ptr, ptr, ptr, ptr, ptr, ptr, ptr, ptr, ptr, ptr, ptr, ptr, ptr, ptr, ptr, ptr, ptr, ptr, ptr, ptr, ptr, ptr, ptr, ptr, ptr, ptr, ptr, ptr, ptr, ptr, ptr, ptr, ptr, ptr, ptr, ptr, ptr, ptr, ptr, ptr, ptr, ptr, ptr, ptr, ptr, ptr, ptr, ptr, ptr, ptr, ptr, ptr, ptr, ptr, ptr, ptr, ptr, ptr, ptr, ptr, ptr, ptr, ptr, ptr, ptr, ptr, ptr, ptr, ptr, ptr, ptr, ptr, ptr, ptr, ptr, ptr, ptr, ptr, ptr }
%struct.sockaddr_in6 = type { i16, i16, i32, %struct.in6_addr, i32 }
%struct.in6_addr = type { %union.anon }
%union.anon = type { [4 x i32] }
%struct.sockaddr = type { i16, [14 x i8] }
%struct.sockaddr_in = type { i16, i16, %struct.in_addr, [8 x i8] }
%struct.in_addr = type { i32 }

@isaCls = internal global ptr null, align 8
@.str.14 = private unnamed_addr constant [27 x i8] c"java/net/InetSocketAddress\00", align 1
@.str.15 = private unnamed_addr constant [7 x i8] c"<init>\00", align 1
@.str.16 = private unnamed_addr constant [27 x i8] c"(Ljava/net/InetAddress;I)V\00", align 1
@isaCtrID = internal global ptr null, align 8
@nio_sctp_getladdrs = hidden global ptr null, align 8
@nio_sctp_freeladdrs = hidden global ptr null, align 8

; Function Attrs: nounwind uwtable
define hidden void @initializeISA(ptr noundef %0) #0 {
  %2 = alloca ptr, align 8
  %3 = alloca ptr, align 8
  store ptr %0, ptr %2, align 8
  %4 = load ptr, ptr @isaCls, align 8
  %5 = icmp eq ptr %4, null
  br i1 %5, label %6, label %51

6:                                                ; preds = %1
  %7 = load ptr, ptr %2, align 8
  %8 = load ptr, ptr %7, align 8
  %9 = getelementptr inbounds %struct.JNINativeInterface_, ptr %8, i32 0, i32 6
  %10 = load ptr, ptr %9, align 8
  %11 = load ptr, ptr %2, align 8
  %12 = call ptr %10(ptr noundef %11, ptr noundef @.str.14)
  store ptr %12, ptr %3, align 8
  br label %13

13:                                               ; preds = %6
  %14 = load ptr, ptr %3, align 8
  %15 = icmp eq ptr %14, null
  br i1 %15, label %16, label %17

16:                                               ; preds = %13
  br label %51

17:                                               ; preds = %13
  br label %18

18:                                               ; preds = %17
  %19 = load ptr, ptr %2, align 8
  %20 = load ptr, ptr %19, align 8
  %21 = getelementptr inbounds %struct.JNINativeInterface_, ptr %20, i32 0, i32 33
  %22 = load ptr, ptr %21, align 8
  %23 = load ptr, ptr %2, align 8
  %24 = load ptr, ptr %3, align 8
  %25 = call ptr %22(ptr noundef %23, ptr noundef %24, ptr noundef @.str.15, ptr noundef @.str.16)
  store ptr %25, ptr @isaCtrID, align 8
  br label %26

26:                                               ; preds = %18
  %27 = load ptr, ptr @isaCtrID, align 8
  %28 = icmp eq ptr %27, null
  br i1 %28, label %29, label %30

29:                                               ; preds = %26
  br label %51

30:                                               ; preds = %26
  br label %31

31:                                               ; preds = %30
  %32 = load ptr, ptr %2, align 8
  %33 = load ptr, ptr %32, align 8
  %34 = getelementptr inbounds %struct.JNINativeInterface_, ptr %33, i32 0, i32 21
  %35 = load ptr, ptr %34, align 8
  %36 = load ptr, ptr %2, align 8
  %37 = load ptr, ptr %3, align 8
  %38 = call ptr %35(ptr noundef %36, ptr noundef %37)
  store ptr %38, ptr @isaCls, align 8
  br label %39

39:                                               ; preds = %31
  %40 = load ptr, ptr @isaCls, align 8
  %41 = icmp eq ptr %40, null
  br i1 %41, label %42, label %43

42:                                               ; preds = %39
  br label %51

43:                                               ; preds = %39
  br label %44

44:                                               ; preds = %43
  %45 = load ptr, ptr %2, align 8
  %46 = load ptr, ptr %45, align 8
  %47 = getelementptr inbounds %struct.JNINativeInterface_, ptr %46, i32 0, i32 23
  %48 = load ptr, ptr %47, align 8
  %49 = load ptr, ptr %2, align 8
  %50 = load ptr, ptr %3, align 8
  call void %48(ptr noundef %49, ptr noundef %50)
  br label %51

51:                                               ; preds = %44, %42, %29, %16, %1
  ret void
}

; Function Attrs: nounwind uwtable
define hidden i32 @sctpHandleSocketError(ptr noundef %0, i32 noundef %1) #0 {
  %3 = alloca ptr, align 8
  %4 = alloca i32, align 4
  store ptr %0, ptr %3, align 8
  store i32 %1, ptr %4, align 4
  %5 = load ptr, ptr %3, align 8
  %6 = load i32, ptr %4, align 4
  %7 = call i32 @sctpHandleSocketErrorWithMessage(ptr noundef %5, i32 noundef %6, ptr noundef null)
  ret i32 %7
}

; Function Attrs: nounwind uwtable
define ptr @Java_sun_nio_ch_sctp_SctpNet_getLocalAddresses0(ptr noundef %0, ptr noundef %1, i32 noundef %2) #0 {
  %4 = alloca ptr, align 8
  %5 = alloca ptr, align 8
  %6 = alloca ptr, align 8
  %7 = alloca i32, align 4
  %8 = alloca ptr, align 8
  %9 = alloca ptr, align 8
  %10 = alloca i32, align 4
  %11 = alloca i32, align 4
  %12 = alloca ptr, align 8
  %13 = alloca i32, align 4
  %14 = alloca ptr, align 8
  %15 = alloca ptr, align 8
  store ptr %0, ptr %5, align 8
  store ptr %1, ptr %6, align 8
  store i32 %2, ptr %7, align 4
  %16 = load ptr, ptr @nio_sctp_getladdrs, align 8
  %17 = load i32, ptr %7, align 4
  %18 = call i32 %16(i32 noundef %17, i32 noundef 0, ptr noundef %8)
  store i32 %18, ptr %11, align 4
  %19 = icmp eq i32 %18, -1
  br i1 %19, label %20, label %25

20:                                               ; preds = %3
  %21 = load ptr, ptr %5, align 8
  %22 = call ptr @__errno_location() #6
  %23 = load i32, ptr %22, align 4
  %24 = call i32 @sctpHandleSocketError(ptr noundef %21, i32 noundef %23)
  store ptr null, ptr %4, align 8
  br label %111

25:                                               ; preds = %3
  %26 = load i32, ptr %11, align 4
  %27 = icmp slt i32 %26, 1
  br i1 %27, label %28, label %29

28:                                               ; preds = %25
  store ptr null, ptr %4, align 8
  br label %111

29:                                               ; preds = %25
  %30 = load ptr, ptr @isaCls, align 8
  %31 = icmp eq ptr %30, null
  br i1 %31, label %32, label %40

32:                                               ; preds = %29
  %33 = load ptr, ptr %5, align 8
  call void @initializeISA(ptr noundef %33)
  br label %34

34:                                               ; preds = %32
  %35 = load ptr, ptr @isaCls, align 8
  %36 = icmp eq ptr %35, null
  br i1 %36, label %37, label %38

37:                                               ; preds = %34
  store ptr null, ptr %4, align 8
  br label %111

38:                                               ; preds = %34
  br label %39

39:                                               ; preds = %38
  br label %40

40:                                               ; preds = %39, %29
  %41 = load ptr, ptr %5, align 8
  %42 = load ptr, ptr %41, align 8
  %43 = getelementptr inbounds %struct.JNINativeInterface_, ptr %42, i32 0, i32 172
  %44 = load ptr, ptr %43, align 8
  %45 = load ptr, ptr %5, align 8
  %46 = load i32, ptr %11, align 4
  %47 = load ptr, ptr @isaCls, align 8
  %48 = call ptr %44(ptr noundef %45, i32 noundef %46, ptr noundef %47, ptr noundef null)
  store ptr %48, ptr %12, align 8
  %49 = load ptr, ptr %12, align 8
  %50 = icmp eq ptr %49, null
  br i1 %50, label %51, label %55

51:                                               ; preds = %40
  %52 = load ptr, ptr @nio_sctp_freeladdrs, align 8
  %53 = load ptr, ptr %8, align 8
  %54 = call i32 %52(ptr noundef %53)
  store ptr null, ptr %4, align 8
  br label %111

55:                                               ; preds = %40
  %56 = load ptr, ptr %8, align 8
  store ptr %56, ptr %9, align 8
  store i32 0, ptr %10, align 4
  br label %57

57:                                               ; preds = %103, %55
  %58 = load i32, ptr %10, align 4
  %59 = load i32, ptr %11, align 4
  %60 = icmp slt i32 %58, %59
  br i1 %60, label %61, label %106

61:                                               ; preds = %57
  store i32 0, ptr %13, align 4
  store ptr null, ptr %15, align 8
  %62 = load ptr, ptr %5, align 8
  %63 = load ptr, ptr %8, align 8
  %64 = call ptr @NET_SockaddrToInetAddress(ptr noundef %62, ptr noundef %63, ptr noundef %13)
  store ptr %64, ptr %14, align 8
  %65 = load ptr, ptr %14, align 8
  %66 = icmp ne ptr %65, null
  br i1 %66, label %67, label %78

67:                                               ; preds = %61
  %68 = load ptr, ptr %5, align 8
  %69 = load ptr, ptr %68, align 8
  %70 = getelementptr inbounds %struct.JNINativeInterface_, ptr %69, i32 0, i32 28
  %71 = load ptr, ptr %70, align 8
  %72 = load ptr, ptr %5, align 8
  %73 = load ptr, ptr @isaCls, align 8
  %74 = load ptr, ptr @isaCtrID, align 8
  %75 = load ptr, ptr %14, align 8
  %76 = load i32, ptr %13, align 4
  %77 = call ptr (ptr, ptr, ptr, ...) %71(ptr noundef %72, ptr noundef %73, ptr noundef %74, ptr noundef %75, i32 noundef %76)
  store ptr %77, ptr %15, align 8
  br label %78

78:                                               ; preds = %67, %61
  %79 = load ptr, ptr %15, align 8
  %80 = icmp eq ptr %79, null
  br i1 %80, label %81, label %82

81:                                               ; preds = %78
  br label %106

82:                                               ; preds = %78
  %83 = load ptr, ptr %5, align 8
  %84 = load ptr, ptr %83, align 8
  %85 = getelementptr inbounds %struct.JNINativeInterface_, ptr %84, i32 0, i32 174
  %86 = load ptr, ptr %85, align 8
  %87 = load ptr, ptr %5, align 8
  %88 = load ptr, ptr %12, align 8
  %89 = load i32, ptr %10, align 4
  %90 = load ptr, ptr %15, align 8
  call void %86(ptr noundef %87, ptr noundef %88, i32 noundef %89, ptr noundef %90)
  %91 = load ptr, ptr %8, align 8
  %92 = getelementptr inbounds %struct.sockaddr, ptr %91, i32 0, i32 0
  %93 = load i16, ptr %92, align 2
  %94 = zext i16 %93 to i32
  %95 = icmp eq i32 %94, 2
  br i1 %95, label %96, label %99

96:                                               ; preds = %82
  %97 = load ptr, ptr %8, align 8
  %98 = getelementptr inbounds %struct.sockaddr_in, ptr %97, i64 1
  store ptr %98, ptr %8, align 8
  br label %102

99:                                               ; preds = %82
  %100 = load ptr, ptr %8, align 8
  %101 = getelementptr inbounds %struct.sockaddr_in6, ptr %100, i64 1
  store ptr %101, ptr %8, align 8
  br label %102

102:                                              ; preds = %99, %96
  br label %103

103:                                              ; preds = %102
  %104 = load i32, ptr %10, align 4
  %105 = add nsw i32 %104, 1
  store i32 %105, ptr %10, align 4
  br label %57, !llvm.loop !8

106:                                              ; preds = %81, %57
  %107 = load ptr, ptr @nio_sctp_freeladdrs, align 8
  %108 = load ptr, ptr %9, align 8
  %109 = call i32 %107(ptr noundef %108)
  %110 = load ptr, ptr %12, align 8
  store ptr %110, ptr %4, align 8
  br label %111

111:                                              ; preds = %106, %51, %37, %28, %20
  %112 = load ptr, ptr %4, align 8
  ret ptr %112
}