; Function Attrs: nounwind uwtable
define ptr @Java_sun_nio_ch_sctp_SctpNet_getLocalAddresses0(ptr noundef %0, ptr nocapture noundef readnone %1, i32 noundef %2) local_unnamed_addr #1 {
  %4 = alloca ptr, align 8
  %5 = alloca i32, align 4
  %6 = load ptr, ptr @nio_sctp_getladdrs, align 8
  %7 = call i32 %6(i32 noundef %2, i32 noundef 0, ptr noundef nonnull %4) #10
  %8 = icmp eq i32 %7, -1
  br i1 %8, label %9, label %13

9:                                                ; preds = %3
  %10 = tail call ptr @__errno_location() #9
  %11 = load i32, ptr %10, align 4
  %12 = call range(i32 -5, 1) i32 @sctpHandleSocketErrorWithMessage(ptr noundef %0, i32 noundef %11, ptr noundef null)
  br label %initializeISA.exit.thread

13:                                               ; preds = %3
  %14 = icmp slt i32 %7, 1
  br i1 %14, label %initializeISA.exit.thread, label %15

15:                                               ; preds = %13
  %16 = load ptr, ptr @isaCls, align 8
  %17 = icmp eq ptr %16, null
  br i1 %17, label %18, label %41

18:                                               ; preds = %15
  %19 = load ptr, ptr %0, align 8
  %20 = getelementptr inbounds i8, ptr %19, i64 48
  %21 = load ptr, ptr %20, align 8
  %22 = call ptr %21(ptr noundef nonnull %0, ptr noundef nonnull @.str.14) #10
  %23 = icmp eq ptr %22, null
  br i1 %23, label %initializeISA.exit, label %24

24:                                               ; preds = %18
  %25 = load ptr, ptr %0, align 8
  %26 = getelementptr inbounds i8, ptr %25, i64 264
  %27 = load ptr, ptr %26, align 8
  %28 = call ptr %27(ptr noundef nonnull %0, ptr noundef nonnull %22, ptr noundef nonnull @.str.15, ptr noundef nonnull @.str.16) #10
  store ptr %28, ptr @isaCtrID, align 8
  %29 = icmp eq ptr %28, null
  br i1 %29, label %initializeISA.exit, label %30

30:                                               ; preds = %24
  %31 = load ptr, ptr %0, align 8
  %32 = getelementptr inbounds i8, ptr %31, i64 168
  %33 = load ptr, ptr %32, align 8
  %34 = call ptr %33(ptr noundef nonnull %0, ptr noundef nonnull %22) #10
  store ptr %34, ptr @isaCls, align 8
  %35 = icmp eq ptr %34, null
  br i1 %35, label %initializeISA.exit.thread, label %36

36:                                               ; preds = %30
  %37 = load ptr, ptr %0, align 8
  %38 = getelementptr inbounds i8, ptr %37, i64 184
  %39 = load ptr, ptr %38, align 8
  call void %39(ptr noundef nonnull %0, ptr noundef nonnull %22) #10
  br label %initializeISA.exit

initializeISA.exit:                               ; preds = %18, %24, %36
  %.pr = load ptr, ptr @isaCls, align 8
  %40 = icmp eq ptr %.pr, null
  br i1 %40, label %initializeISA.exit.thread, label %41

41:                                               ; preds = %initializeISA.exit, %15
  %42 = phi ptr [ %.pr, %initializeISA.exit ], [ %16, %15 ]
  %43 = load ptr, ptr %0, align 8
  %44 = getelementptr inbounds i8, ptr %43, i64 1376
  %45 = load ptr, ptr %44, align 8
  %46 = call ptr %45(ptr noundef nonnull %0, i32 noundef %7, ptr noundef nonnull %42, ptr noundef null) #10
  %47 = icmp eq ptr %46, null
  br i1 %47, label %48, label %.lr.ph.preheader

48:                                               ; preds = %41
  %49 = load ptr, ptr @nio_sctp_freeladdrs, align 8
  %50 = load ptr, ptr %4, align 8
  %51 = call i32 %49(ptr noundef %50) #10
  br label %initializeISA.exit.thread

.lr.ph.preheader:                                 ; preds = %41
  %52 = load ptr, ptr %4, align 8
  br label %.lr.ph

.lr.ph:                                           ; preds = %.lr.ph.preheader, %64
  %53 = phi ptr [ %storemerge, %64 ], [ %52, %.lr.ph.preheader ]
  %.02530 = phi i32 [ %71, %64 ], [ 0, %.lr.ph.preheader ]
  store i32 0, ptr %5, align 4
  %54 = call ptr @NET_SockaddrToInetAddress(ptr noundef nonnull %0, ptr noundef %53, ptr noundef nonnull %5) #10
  %.not = icmp eq ptr %54, null
  br i1 %.not, label %.thread, label %55

55:                                               ; preds = %.lr.ph
  %56 = load ptr, ptr %0, align 8
  %57 = getelementptr inbounds i8, ptr %56, i64 224
  %58 = load ptr, ptr %57, align 8
  %59 = load ptr, ptr @isaCls, align 8
  %60 = load ptr, ptr @isaCtrID, align 8
  %61 = load i32, ptr %5, align 4
  %62 = call ptr (ptr, ptr, ptr, ...) %58(ptr noundef nonnull %0, ptr noundef %59, ptr noundef %60, ptr noundef nonnull %54, i32 noundef %61) #10
  %63 = icmp eq ptr %62, null
  br i1 %63, label %.thread, label %64

64:                                               ; preds = %55
  %65 = load ptr, ptr %0, align 8
  %66 = getelementptr inbounds i8, ptr %65, i64 1392
  %67 = load ptr, ptr %66, align 8
  call void %67(ptr noundef nonnull %0, ptr noundef nonnull %46, i32 noundef %.02530, ptr noundef nonnull %62) #10
  %68 = load ptr, ptr %4, align 8
  %69 = load i16, ptr %68, align 2
  %70 = icmp eq i16 %69, 2
  %storemerge.v = select i1 %70, i64 16, i64 28
  %storemerge = getelementptr inbounds i8, ptr %68, i64 %storemerge.v
  store ptr %storemerge, ptr %4, align 8
  %71 = add nuw nsw i32 %.02530, 1
  %exitcond.not = icmp eq i32 %71, %7
  br i1 %exitcond.not, label %.thread, label %.lr.ph, !llvm.loop !8

.thread:                                          ; preds = %64, %55, %.lr.ph
  %72 = load ptr, ptr @nio_sctp_freeladdrs, align 8
  %73 = call i32 %72(ptr noundef %52) #10
  br label %initializeISA.exit.thread

initializeISA.exit.thread:                        ; preds = %30, %initializeISA.exit, %13, %.thread, %48, %9
  %.024 = phi ptr [ null, %9 ], [ null, %48 ], [ %46, %.thread ], [ null, %13 ], [ null, %initializeISA.exit ], [ null, %30 ]
  ret ptr %.024
}